(dp0
I1
S'<END>'
p1
sI2
S'<START>'
p2
sI3
S'Fit'
p3
sI4
S'Regular'
p4
sI5
S'Cotton'
p5
sI6
S'Full'
p6
sI7
S'100'
p7
sI8
S'Percent'
p8
sI9
S'Slim'
p9
sI10
S'Casuals'
p10
sI11
S'Solids'
p11
sI12
S'Blue'
p12
sI13
S'Checks'
p13
sI14
S'Formal'
p14
sI15
S'Prints'
p15
sI16
S'Blend'
p16
sI17
S'Casual'
p17
sI18
S'Arrow'
p18
sI19
S'Half'
p19
sI20
S'of'
p20
sI21
S'White'
p21
sI22
S'Multi'
p22
sI23
S'Colors'
p23
sI24
S'Benetton'
p24
sI25
S'United'
p25
sI26
S'Linen'
p26
sI27
S'Khadi'
p27
sI28
S'Sports'
p28
sI29
S'Stripes'
p29
sI30
S'Dobby'
p30
sI31
S'Van'
p31
sI32
S'Heusen'
p32
sI33
S'Navy'
p33
sI34
S'Red'
p34
sI35
S'Black'
p35
sI36
S'Down'
p36
sI37
S'Button'
p37
sI38
S'Green'
p38
sI39
S'Grey'
p39
sI40
S'S'
p40
sI41
S'Polo'
p41
sI42
S'Assn'
p42
sI43
S'U'
p43
sI44
S'Denim'
p44
sI45
S'Pink'
p45
sI46
S'Chinese'
p46
sI47
S'Mandarin'
p47
sI48
S'Yellow'
p48
sI49
S'Spykar'
p49
sI50
S'Purple'
p50
sI51
S'Nautica'
p51
sI52
S'Peter'
p52
sI53
S'Izod'
p53
sI54
S'England'
p54
sI55
S'to'
p55
sI56
S'Jack'
p56
sI57
S'Jones'
p57
sI58
S'2'
p58
sI59
S'Beige'
p59
sI60
S'and'
p60
sI61
S'Pack'
p61
sI62
S'York'
p62
sI63
S'New'
p63
sI64
S'Wajbee'
p64
sI65
S'Orange'
p65
sI66
S'Brown'
p66
sI67
S'Mufti'
p67
sI68
S'Sport'
p68
sI69
S'People'
p69
sI70
S'Partywear'
p70
sI71
S'Maroon'
p71
sI72
S'wear'
p72
sI73
S'Lee'
p73
sI74
S'Easy'
p74
sI75
S'Off'
p75
sI76
S'Tape'
p76
sI77
S'maintain'
p77
sI78
S'combo'
p78
sI79
S'Flying'
p79
sI80
S'Machine'
p80
sI81
S'Khaki'
p81
sI82
S'Men'
p82
sI83
S'Unique'
p83
sI84
S'This'
p84
sI85
S'the'
p85
sI86
S'Single'
p86
sI87
S"Levi's"
p87
sI88
S'Turquoise'
p88
sI89
S'Fox'
p89
sI90
S'Fashion'
p90
sI91
S'for'
p91
sI92
S'Polyester'
p92
sI93
S'Chest'
p93
sI94
S'Raymond'
p94
sI95
S'M'
p95
sI96
S'Shirt'
p96
sI97
S'For'
p97
sI98
S'is'
p98
sI99
S'Waist'
p99
sI100
S'Shirts'
p100
sI101
S'wearer'
p101
sI102
S'DOT'
p102
sI103
S'V'
p103
sI104
S'La'
p104
sI105
S'comfort'
p105
sI106
S'Ensures'
p106
sI107
S'Peach'
p107
sI108
S'Jeans'
p108
sI109
S'wearing'
p109
sI110
S'Allen'
p110
sI111
S'Blocks'
p111
sI112
S'Avenue'
p112
sI113
S'model'
p113
sI114
S'has'
p114
sI115
S'Urbano'
p115
sI116
S'maximum'
p116
sI117
S'Color'
p117
sI118
S'FCUK'
p118
sI119
S'a'
p119
sI120
S'The'
p120
sI121
S'Rafters'
p121
sI122
S'Lighting'
p122
sI123
S'Maniere'
p123
sI124
S'Your'
p124
sI125
S'product'
p125
sI126
S'Ocean'
p126
sI127
S"6'0''"
p127
sI128
S'Sources'
p128
sI129
S'Photographic'
p129
sI130
S'Cooper'
p130
sI131
S'Due'
p131
sI132
S'size'
p132
sI133
S'Mode'
p133
sI134
S'Monitor'
p134
sI135
S'Settings'
p135
sI136
S'Rapphael'
p136
sI137
S'height'
p137
sI138
S'Slightly'
p138
sI139
S'Vary'
p139
sI140
S'Product'
p140
sI141
S'By'
p141
sI142
S'Colour'
p142
sI143
S'Marc'
p143
sI144
S'Bon'
p144
sI145
S'May'
p145
sI146
S'Solly'
p146
sI147
S'Comfortable'
p147
sI148
S'Nostrum'
p148
sI149
S'LAWMAN'
p149
sI150
S'Solid'
p150
sI151
S'L'
p151
sI152
S'pg3'
p152
sI153
S'Park'
p153
sI154
S'And'
p154
sI155
S'Fine'
p155
sI156
S'or'
p156
sI157
S'Koolpals'
p157
sI158
S'Streak'
p158
sI159
S'Lie'
p159
sI160
S'Mods'
p160
sI161
S'Vero'
p161
sI162
S'Highlander'
p162
sI163
S"40''"
p163
sI164
S'Silver'
p164
sI165
S'Wearing'
p165
sI166
S'easy'
p166
sI167
S'No'
p167
sI168
S'44'
p168
sI169
S'represent'
p169
sI170
S'Leaf'
p170
sI171
S'Step'
p171
sI172
S"34''"
p172
sI173
S"32''"
p173
sI174
S'Height'
p174
sI175
S'men'
p175
sI176
S'38'
p176
sI177
S'Booze'
p177
sI178
S'Size'
p178
sI179
S'Style'
p179
sI180
S'Out'
p180
sI181
S'Duenite'
p181
sI182
S'may'
p182
sI183
S'Smith'
p183
sI184
S'Steps'
p184
sI185
S'Class'
p185
sI186
S'Human'
p186
sI187
S'Indian'
p187
sI188
S'differ'
p188
sI189
S'Collar'
p189
sI190
S'solly'
p190
sI191
S'though'
p191
sI192
S'Creation'
p192
sI193
S'High'
p193
sI194
S'Leaves'
p194
sI195
S"36''"
p195
sI196
S'Bombay'
p196
sI197
S'Jainish'
p197
sI198
S'Lafantar'
p198
sI199
S'color'
p199
sI200
S'In'
p200
sI201
S'Armour'
p201
sI202
S'Kuons'
p202
sI203
S'London'
p203
sI204
S'images'
p204
sI205
S'Mike'
p205
sI206
S'actual'
p206
sI207
S'Looks'
p207
sI208
S'slightly'
p208
sI209
S'image'
p209
sI210
S'NA'
p210
sI211
S'42'
p211
sI212
S'40'
p212
sI213
S'Oxemberg'
p213
sI214
S'Elle'
p214
sI215
S'Global'
p215
sI216
S'Rebanta'
p216
sI217
S'casual'
p217
sI218
S'Quo'
p218
sI219
S'Light'
p219
sI220
S'39'
p220
sI221
S'Status'
p221
sI222
S'A'
p222
sI223
S'Lifestyles'
p223
sI224
S'fit'
p224
sI225
S'After8'
p225
sI226
S'Cool'
p226
sI227
S'gifting'
p227
sI228
S'wash'
p228
sI229
S'Combo'
p229
sI230
S'Sleeves'
p230
sI231
S'Hawk'
p231
sI232
S'option'
p232
sI233
S'XL'
p233
sI234
S'Milano'
p234
sI235
S'Skinny'
p235
sI236
S'Sutra'
p236
sI237
S'Club'
p237
sI238
S'Colorplus'
p238
sI239
S'Satin'
p239
sI240
S'Perfect'
p240
sI241
S'silk'
p241
sI242
S'Printed'
p242
sI243
S'Quebec'
p243
sI244
S'Campus'
p244
sI245
S'Smart'
p245
sI246
S"Jain's"
p246
sI247
S'Wash'
p247
sI248
S'Ideal'
p248
sI249
S'Wear'
p249
sI250
S'Hi'
p250
sI251
S'First'
p251
sI252
S'Zaprock'
p252
sI253
S'parties'
p253
sI254
S'Lucfashion'
p254
sI255
S'fabric'
p255
sI256
S'To'
p256
sI257
S'outing'
p257
sI258
S'Koutons'
p258
sI259
S'Time'
p259
sI260
S'all'
p260
sI261
S'DZSH2742'
p261
sI262
S'skin'
p262
sI263
S'Pride'
p263
sI264
S'Not'
p264
sI265
S'premium'
p265
sI266
S'Tuned'
p266
sI267
S'cool'
p267
sI268
S'DZSH1938'
p268
sI269
S'shirts'
p269
sI270
S'Made'
p270
sI271
S'BLK'
p271
sI272
S'103'
p272
sI273
S'31'
p273
sI274
S'pics'
p274
sI275
S'Home'
p275
sI276
S'Pices'
p276
sI277
S'IKLFWAW11SH118'
p277
sI278
S'from'
p278
sI279
S'Stay'
p279
sI280
S'Trendbend'
p280
sI281
S'Merchandise'
p281
sI282
S'Fxjeans'
p282
sI283
S'Lingo'
p283
sI284
S'Indigo'
p284
sI285
S'worn'
p285
sI286
S'can'
p286
sI287
S'Urban'
p287
sI288
S'Outlaw'
p288
sI289
S'Model'
p289
sI290
S"6'1''"
p290
sI291
S'LIE'
p291
sI292
S'perfect'
p292
sI293
S'offers'
p293
sI294
S'Maintain'
p294
sI295
S'day'
p295
sI296
S'Oxolloxo'
p296
sI297
S'Vicbono'
p297
sI298
S"6'2"
p298
sI299
S'weight'
p299
sI300
S'DZSH1842'
p300
sI301
S'Ebry'
p301
sI302
S'Durable'
p302
sI303
S'Collection'
p303
sI304
S'Feels'
p304
sI305
S'Mesh'
p305
sI306
S'BLUE'
p306
sI307
S'Seven'
p307
sI308
S'Set'
p308
sI309
S'Anti'
p309
sI310
S'Rich'
p310
sI311
S'comfortable'
p311
sI312
S'Do'
p312
sI313
S"30''"
p313
sI314
S'Dapper'
p314
sI315
S'Basics'
p315
sI316
S'VERO'
p316
sI317
S'DZSH342'
p317
sI318
S'Swisscott'
p318
sI319
S'Zido'
p319
sI320
S'Has'
p320
sI321
S'Dazzio'
p321
sI322
S'SPK9135TF'
p322
sI323
S'Fashions'
p323
sI324
S'Similar'
p324
sI325
S'Hanky'
p325
sI326
S'DZSH844'
p326
sI327
S'John'
p327
sI328
S'PP'
p328
sI329
S'3'
p329
sI330
S'Bleach'
p330
sI331
S'Wrangler'
p331
sI332
S'Gargi'
p332
sI333
S"6'"
p333
sI334
S'jeans'
p334
sI335
S'Ansh'
p335
sI336
S'CF'
p336
sI337
S'Together'
p337
sI338
S'c9'
p338
sI339
S'c6'
p339
sI340
S'pack'
p340
sI341
S'FXJeans'
p341
sI342
S'it'
p342
sI343
S'Mens'
p343
sI344
S'in'
p344
sI345
S'34'
p345
sI346
S'everyday'
p346
sI347
S'shirt'
p347
sI348
S'I'
p348
sI349
S'MB2'
p349
sI350
S'Is'
p350
sI351
S'It'
p351
sI352
S'Tinted'
p352
sI353
S'Dennis'
p353
sI354
S'Clothing'
p354
sI355
S'summer'
p355
sI356
S'Polos'
p356
sI357
S'Collars'
p357
sI358
S'Buttons'
p358
sI359
S'Vallon'
p359
sI360
S'smart'
p360
sI361
S'Of'
p361
sI362
S'T'
p362
sI363
S'Or'
p363
sI364
S'Ahaana'
p364
sI365
S'Offers'
p365
sI366
S'be'
p366
sI367
S'Lifestyle'
p367
sI368
S'on'
p368
sI369
S'soft'
p369
sI370
S'DZSH944'
p370
sI371
S'Na'
p371
sI372
S'your'
p372
sI373
S'long'
p373
sI374
S'Hand'
p374
sI375
S'construction'
p375
sI376
S'Original'
p376
sI377
S'Gold'
p377
sI378
S'Voc'
p378
sI379
S'601'
p379
sI380
S'pic'
p380
sI381
S'Snap'
p381
sI382
S'no'
p382
sI383
S'Mangal'
p383
sI384
S'time'
p384
s.