(dp0
I1
S'<END>'
p1
sI2
S'<START>'
p2
sI3
S'Cotton'
p3
sI4
S'Fit'
p4
sI5
S'Full'
p5
sI6
S'Regular'
p6
sI7
S'100'
p7
sI8
S'Percent'
p8
sI9
S'Solids'
p9
sI10
S'Slim'
p10
sI11
S'Casuals'
p11
sI12
S'Blend'
p12
sI13
S'Multi'
p13
sI14
S'Formal'
p14
sI15
S'Blue'
p15
sI16
S'Checks'
p16
sI17
S'Prints'
p17
sI18
S'of'
p18
sI19
S'Pack'
p19
sI20
S'2'
p20
sI21
S'Casual'
p21
sI22
S'White'
p22
sI23
S'Half'
p23
sI24
S'Linen'
p24
sI25
S'Stripes'
p25
sI26
S'Black'
p26
sI27
S'3'
p27
sI28
S'Grey'
p28
sI29
S'Pink'
p29
sI30
S'Green'
p30
sI31
S'Navy'
p31
sI32
S'Yellow'
p32
sI33
S'Red'
p33
sI34
S'Purple'
p34
sI35
S'Chinese'
p35
sI36
S'Mandarin'
p36
sI37
S'Ocean'
p37
sI38
S'4'
p38
sI39
S'Partywear'
p39
sI40
S'Beige'
p40
sI41
S'to'
p41
sI42
S'Brown'
p42
sI43
S'La'
p43
sI44
S'Van'
p44
sI45
S'and'
p45
sI46
S'Wear'
p46
sI47
S'Raymond'
p47
sI48
S'Dobby'
p48
sI49
S'Denim'
p49
sI50
S'Khadi'
p50
sI51
S'Satin'
p51
sI52
S'Shirt'
p52
sI53
S'Button'
p53
sI54
S'Arrow'
p54
sI55
S'Maroon'
p55
sI56
S'Down'
p56
sI57
S'Spykar'
p57
sI58
S'Winsome'
p58
sI59
S'London'
p59
sI60
S'wear'
p60
sI61
S'Showoff'
p61
sI62
S'Galis'
p62
sI63
S'Single'
p63
sI64
S'Southbay'
p64
sI65
S'Fashion'
p65
sI66
S'Shirts'
p66
sI67
S'Milano'
p67
sI68
S'Orange'
p68
sI69
S'Donear'
p69
sI70
S'Royal'
p70
sI71
S'Jack'
p71
sI72
S'Jones'
p72
sI73
S'Crown'
p73
sI74
S'shirt'
p74
sI75
S'Rose'
p75
sI76
S'Color'
p76
sI77
S'Urbantouch'
p77
sI78
S'5'
p78
sI79
S'Cottonworld'
p79
sI80
S'Collection'
p80
sI81
S'With'
p81
sI82
S'Polyester'
p82
sI83
S'Republic'
p83
sI84
S'Riwas'
p84
sI85
S'NXG'
p85
sI86
S'Island'
p86
sI87
S'Roman'
p87
sI88
S'Combo'
p88
sI89
S'Looks'
p89
sI90
S'United'
p90
sI91
S'Zido'
p91
sI92
S'Kings'
p92
sI93
S'Blocks'
p93
sI94
S'Of'
p94
sI95
S'John'
p95
sI96
S'Pride'
p96
sI97
S'a'
p97
sI98
S'Bombay'
p98
sI99
S'Mode'
p99
sI100
S'Colorplus'
p100
sI101
S'is'
p101
sI102
S'for'
p102
sI103
S'Comfortable'
p103
sI104
S'Mufti'
p104
sI105
S'Jeans'
p105
sI106
S'Colors'
p106
sI107
S'Deal'
p107
sI108
S'your'
p108
sI109
S'Benetton'
p109
sI110
S'A'
p110
sI111
S'Urban'
p111
sI112
S'on'
p112
sI113
S'Dennison'
p113
sI114
S'The'
p114
sI115
S'Off'
p115
sI116
S'Vero'
p116
sI117
S'Heusen'
p117
sI118
S'M'
p118
sI119
S'Anytime'
p119
sI120
S'Club'
p120
sI121
S'Avenue'
p121
sI122
S'fit'
p122
sI123
S'the'
p123
sI124
S'Bacchus'
p124
sI125
S'1'
p125
sI126
S'Hancock'
p126
sI127
S'Lie'
p127
sI128
S'Silver'
p128
sI129
S'shirts'
p129
sI130
S'Duenite'
p130
sI131
S'Vintage'
p131
sI132
S'Ansh'
p132
sI133
S'Two'
p133
sI134
S'Fifty'
p134
sI135
S'Sports'
p135
sI136
S'Alanti'
p136
sI137
S'Pics'
p137
sI138
S'High'
p138
sI139
S'Peach'
p139
sI140
S'Streak'
p140
sI141
S'YES'
p141
sI142
S'Goplay'
p142
sI143
S'Oh'
p143
sI144
S'Buddha'
p144
sI145
S'Four'
p145
sI146
S'One'
p146
sI147
S'All'
p147
sI148
S'Mark'
p148
sI149
S'Kuons'
p149
sI150
S'Times'
p150
sI151
S'This'
p151
sI152
S'combo'
p152
sI153
S'casual'
p153
sI154
S'Turquoise'
p154
sI155
S'Easy'
p155
sI156
S'PP'
p156
sI157
S'Chokore'
p157
sI158
S'Khaki'
p158
sI159
S'Rocx'
p159
sI160
S'Online'
p160
sI161
S'Parx'
p161
sI162
S'S'
p162
sI163
S'Be'
p163
sI164
S'Couture'
p164
sI165
S'from'
p165
sI166
S'quality'
p166
sI167
S'Apris'
p167
sI168
S'Pollo'
p168
sI169
S'Polo'
p169
sI170
S'First'
p170
sI171
S'Crosscreek'
p171
sI172
S'GoPlay'
p172
sI173
S'D'
p173
sI174
S'Fabric'
p174
sI175
S'maintain'
p175
sI176
S'LAWMAN'
p176
sI177
S'N'
p177
sI178
S'pg3'
p178
sI179
S'Big'
p179
sI180
S'Manu'
p180
sI181
S'L'
p181
sI182
S'Bee'
p182
sI183
S'Speak'
p183
sI184
S'comfortable'
p184
sI185
S'British'
p185
sI186
S'Perfect'
p186
sI187
S'look'
p187
sI188
S'Very'
p188
sI189
S'Fashions'
p189
sI190
S'40'
p190
sI191
S'Me'
p191
sI192
S'No'
p192
sI193
S'Silk'
p193
sI194
S'Rapphael'
p194
sI195
S'AnyTime'
p195
sI196
S'Scottish'
p196
sI197
S'Wave'
p197
sI198
S'Made'
p198
sI199
S'Williams'
p199
sI200
S'Khoday'
p200
sI201
S'Harvest'
p201
sI202
S'skin'
p202
sI203
S'BHK'
p203
sI204
S'Terminal'
p204
sI205
S'Vulcan'
p205
sI206
S'Oxemberg'
p206
sI207
S'in'
p207
sI208
S'product'
p208
sI209
S'Studio'
p209
sI210
S'or'
p210
sI211
S'all'
p211
sI212
S'Yuvi'
p212
sI213
S'Globus'
p213
sI214
S'Nxg'
p214
sI215
S'cotton'
p215
sI216
S'Peter'
p216
sI217
S'England'
p217
sI218
S'Izod'
p218
sI219
S'Urbano'
p219
sI220
S'material'
p220
sI221
S'Twist'
p221
sI222
S'Zohn'
p222
sI223
S'U'
p223
sI224
S'Deere'
p224
sI225
S'Collar'
p225
sI226
S'Self'
p226
sI227
S'It'
p227
sI228
S'with'
p228
sI229
S'Tape'
p229
sI230
S'Assn'
p230
sI231
S'Time'
p231
sI232
S'Seven'
p232
sI233
S'6'
p233
sI234
S'Mods'
p234
sI235
S'Greenfibre'
p235
sI236
S'this'
p236
sI237
S'comfort'
p237
sI238
S'Numero'
p238
sI239
S'Uno'
p239
sI240
S'Clothing'
p240
sI241
S'Meltin'
p241
sI242
S'Canary'
p242
sI243
S'Stitch'
p243
sI244
S'Brother'
p244
sI245
S'Vimal'
p245
sI246
S'Copperline'
p246
sI247
S'Set'
p247
sI248
S'option'
p248
sI249
S'Product'
p249
sI250
S'Leaf'
p250
sI251
S'Designers'
p251
sI252
S'premium'
p252
sI253
S'Attire'
p253
sI254
S'inner'
p254
sI255
S'Gargi'
p255
sI256
S'Mercury'
p256
sI257
S'Zavlin'
p257
sI258
S'at'
p258
sI259
S'Bay'
p259
sI260
S'Flannel'
p260
sI261
S'Cod'
p261
sI262
S'Apple'
p262
sI263
S'pattern'
p263
sI264
S'Country'
p264
sI265
S'JadeBlue'
p265
sI266
S'New'
p266
sI267
S'York'
p267
sI268
S'RG'
p268
sI269
S'it'
p269
sI270
S'long'
p270
sI271
S'Stylo'
p271
sI272
S'Jainish'
p272
sI273
S'Feel'
p273
sI274
S'day'
p274
sI275
S'Ridge'
p275
sI276
S'has'
p276
sI277
S"Men's"
p277
sI278
S'Men'
p278
sI279
S'soft'
p279
sI280
S'men'
p280
sI281
S'V'
p281
sI282
S'Soft'
p282
sI283
S'Fizzaro'
p283
sI284
S'After8'
p284
sI285
S'smart'
p285
sI286
S'placket'
p286
sI287
S'offers'
p287
sI288
S'G'
p288
sI289
S'up'
p289
sI290
S'gifting'
p290
sI291
S'Kayadeals'
p291
sI292
S'MSG'
p292
sI293
S'Salwar'
p293
sI294
S'True'
p294
sI295
S'Krone'
p295
sI296
S'Stylish'
p296
sI297
S'Nautica'
p297
sI298
S'Tittos'
p298
sI299
S'Ladida'
p299
sI300
S'Smith'
p300
sI301
S'Mike'
p301
sI302
S'F'
p302
sI303
S'Chest'
p303
sI304
S'Bandit'
p304
sI305
S'Real'
p305
sI306
S'Value'
p306
sI307
S'Machine'
p307
sI308
S'Zero'
p308
sI309
S'Volume'
p309
sI310
S'Quality'
p310
sI311
S'Smart'
p311
sI312
S'designed'
p312
sI313
S'Austin'
p313
sI314
S'NA'
p314
sI315
S'For'
p315
sI316
S'Fast'
p316
sI317
S'Moda'
p317
sI318
S'Quo'
p318
sI319
S'very'
p319
sI320
S'Status'
p320
sI321
S'will'
p321
sI322
S'Fab'
p322
sI323
S'Fabrobe'
p323
sI324
S'Ideal'
p324
sI325
S'Being'
p325
sI326
S'Pices'
p326
sI327
S'To'
p327
sI328
S'Rebanta'
p328
sI329
S'Park'
p329
sI330
S'And'
p330
sI331
S'Waist'
p331
sI332
S'Willowy'
p332
sI333
S'be'
p333
sI334
S'Flying'
p334
sI335
S'Eden'
p335
sI336
S'42'
p336
sI337
S'Christian'
p337
sI338
S'wearing'
p338
sI339
S'fabric'
p339
sI340
S'model'
p340
sI341
S'Sleeves'
p341
sI342
S'Sautter'
p342
sI343
S'cut'
p343
sI344
S'Cobio'
p344
sI345
S'38'
p345
sI346
S'high'
p346
sI347
S'height'
p347
sI348
S'DOT'
p348
sI349
S'size'
p349
sI350
S'KayaDeals'
p350
sI351
S'Originals'
p351
sI352
S'design'
p352
sI353
S'Sport'
p353
sI354
S'Offers'
p354
sI355
S'Lyos'
p355
sI356
S'Relish'
p356
sI357
S'worn'
p357
sI358
S'RX3'
p358
sI359
S'Barrister'
p359
sI360
S'can'
p360
sI361
S'Crafted'
p361
sI362
S'Oxolloxo'
p362
sI363
S'Feels'
p363
sI364
S'Helg'
p364
sI365
S'sleeves'
p365
sI366
S'perfect'
p366
sI367
S'colour'
p367
sI368
S'Gold'
p368
sI369
S'Atorse'
p369
sI370
S'44'
p370
sI371
S'Mithindia'
p371
sI372
S'Dais'
p372
sI373
S'Springfield'
p373
sI374
S'Wajbee'
p374
sI375
S'slightly'
p375
sI376
S'may'
p376
sI377
S'parties'
p377
sI378
S'outing'
p378
sI379
S'Craft'
p379
sI380
S'India'
p380
sI381
S'Baaamboos'
p381
sI382
S'Aflash'
p382
sI383
S'contrast'
p383
sI384
S'COBIO'
p384
sI385
S'bottom'
p385
sI386
S'DManpower'
p386
sI387
S'Bannasa'
p387
sI388
S'Hoffmen'
p388
sI389
S'Evoq'
p389
sI390
S'Porttrait'
p390
sI391
S'Yes'
p391
sI392
S'attractive'
p392
sI393
S'Pcs'
p393
sI394
S'band'
p394
sI395
S'Mantelli'
p395
sI396
S'Cut'
p396
sI397
S'Martin'
p397
sI398
S'neck'
p398
sI399
S'Printed'
p399
sI400
S'Classic'
p400
sI401
S'Nino'
p401
sI402
S'Great'
p402
sI403
S'C'
p403
sI404
S'Bluvior'
p404
sI405
S'Double'
p405
sI406
S'time'
p406
sI407
S'Caricature'
p407
sI408
S'cuff'
p408
sI409
S'Neeya'
p409
sI410
S'Utility'
p410
sI411
S'Culture'
p411
sI412
S'wash'
p412
sI413
S'Ahaana'
p413
sI414
S'Global'
p414
sI415
S'LIE'
p415
sI416
S'monitor'
p416
sI417
S'photographic'
p417
sI418
S'settings'
p418
sI419
S'you'
p419
sI420
S'Elle'
p420
sI421
S'lighting'
p421
sI422
S'Dizen'
p422
sI423
S'sources'
p423
sI424
S'due'
p424
sI425
S'Ishwa'
p425
sI426
S'Quebec'
p426
sI427
S'Watch'
p427
sI428
S'iron'
p428
sI429
S'Pratamika'
p429
sI430
S'Colour'
p430
sI431
S'Negotium'
p431
sI432
S'Padmini'
p432
sI433
S'Enchanted'
p433
sI434
S'Ensures'
p434
sI435
S'H'
p435
sI436
S'Signature'
p436
sI437
S'Kobalt'
p437
sI438
S'People'
p438
sI439
S'Sutra'
p439
sI440
S'Benzoni'
p440
sI441
S'Aesthetically'
p441
sI442
S'Platinum'
p442
sI443
S'Buckket'
p443
sI444
S'Campus'
p444
sI445
S'Griffel'
p445
sI446
S'Drapes'
p446
sI447
S'Basil'
p447
sI448
S'Positive'
p448
sI449
S'feedback'
p449
sI450
S'vary'
p450
sI451
S'Vaak'
p451
sI452
S'Appollo'
p452
sI453
S'141211'
p453
sI454
S'n'
p454
sI455
S'take'
p455
sI456
S'leave'
p456
sI457
S'color'
p457
sI458
S'important'
p458
sI459
S'really'
p459
sI460
S'services'
p460
sI461
S'please'
p461
sI462
S"40''"
p462
sI463
S'us'
p463
sI464
S'Iralzo'
p464
sI465
S'As'
p465
sI466
S'few'
p466
sI467
S'Feedback'
p467
sI468
S'our'
p468
sI469
S'Unique'
p469
sI470
S'minutes'
p470
sI471
S'Mylook'
p471
sI472
S'Due'
p472
sI473
S'Monitor'
p473
sI474
S'pocket'
p474
sI475
S'Settings'
p475
sI476
S'CM'
p476
sI477
S'Lighting'
p477
sI478
S'Nostrum'
p478
sI479
S'Sources'
p479
sI480
S'Vary'
p480
sI481
S'Your'
p481
sI482
S'Bottom'
p482
sI483
S'Ojass'
p483
sI484
S'Triplnn'
p484
sI485
S'Tinted'
p485
sI486
S'May'
p486
sI487
S'Photographic'
p487
sI488
S'Slightly'
p488
sI489
S'Elbrus'
p489
sI490
S'maximum'
p490
sI491
S'Noble'
p491
sI492
S'wearer'
p492
sI493
S'style'
p493
sI494
S'Faith'
p494
sI495
S'WITH'
p495
sI496
S'collar'
p496
sI497
S'Highstar'
p497
sI498
S'Deezeno'
p498
sI499
S'Pocket'
p499
sI500
S'Kalpatru'
p500
sI501
S'button'
p501
sI502
S'Washed'
p502
sI503
S'Piano'
p503
sI504
S'Lee'
p504
sI505
S'sleeve'
p505
sI506
S'Light'
p506
sI507
S'Flakes'
p507
sI508
S'Vallon'
p508
sI509
S'made'
p509
sI510
S'make'
p510
sI511
S'Eye'
p511
sI512
S'over'
p512
sI513
S'Maintain'
p513
sI514
S'modern'
p514
sI515
S'Jogur'
p515
sI516
S'Roll'
p516
sI517
S'Cuffs'
p517
sI518
S'Soul'
p518
sI519
S'In'
p519
sI520
S'as'
p520
sI521
S'Fresh'
p521
sI522
S'Trinath'
p522
sI523
S'Semi'
p523
sI524
S'Stay'
p524
sI525
S'Again'
p525
sI526
S'Convertible'
p526
sI527
S'Kenrich'
p527
sI528
S'Ambix'
p528
sI529
S'Lafantar'
p529
sI530
S'Platinaa'
p530
sI531
S'Moustache'
p531
sI532
S'pics'
p532
sI533
S'Toxic'
p533
sI534
S'7'
p534
sI535
S'Durable'
p535
sI536
S'Tuned'
p536
sI537
S'Yo'
p537
sI538
S'Pre'
p538
sI539
S'Addmoney'
p539
sI540
S'Odditie'
p540
sI541
S'FRD13'
p541
sI542
S'River'
p542
sI543
S'Ciara'
p543
sI544
S'Pickurs'
p544
sI545
S'Ganesha'
p545
sI546
S'Corporate'
p546
sI547
S'Druthers'
p547
sI548
S'COD'
p548
sI549
S'Style'
p549
sI550
S'Enterprises'
p550
sI551
S'Jhampstead'
p551
sI552
S'Fashioned'
p552
sI553
S'Shree'
p553
sI554
S"6'0''"
p554
sI555
S"Levi's"
p555
sI556
S'Verismo'
p556
sI557
S'Contrast'
p557
sI558
S'easy'
p558
sI559
S'Jess'
p559
sI560
S'making'
p560
sI561
S'Pearl'
p561
sI562
S'Swiss'
p562
sI563
S'Line'
p563
sI564
S'39'
p564
sI565
S'Nick'
p565
sI566
S'Gingham'
p566
sI567
S'details'
p567
sI568
S'Trustedsnap'
p568
sI569
S'prints'
p569
sI570
S'urban'
p570
sI571
S'Piece'
p571
sI572
S'Choice'
p572
sI573
S'Formals'
p573
sI574
S'Wash'
p574
sI575
S'Carlos'
p575
sI576
S'Starsy'
p576
sI577
S'Valley'
p577
sI578
S'fashionable'
p578
sI579
S'Marc'
p579
sI580
S'an'
p580
sI581
S'sharp'
p581
sI582
S'Indian'
p582
sI583
S'Precision'
p583
sI584
S'XL'
p584
sI585
S'VERO'
p585
sI586
S'Fly'
p586
sI587
S'Belt'
p587
sI588
S'single'
p588
sI589
S'favourite'
p589
sI590
S'Designed'
p590
sI591
S'Sins'
p591
sI592
S'Pan'
p592
sI593
S'Crazy4white'
p593
sI594
S'Jugend'
p594
sI595
S'Juan'
p595
sI596
S'Calveen'
p596
sI597
S'dry'
p597
sI598
S'first'
p598
sI599
S'MODA'
p599
sI600
S'Monster'
p600
sI601
S'Vivid'
p601
sI602
S'Sage'
p602
sI603
S'Soothing'
p603
sI604
S'SIN'
p604
sI605
S'fashions'
p605
sI606
S'Solen'
p606
sI607
S'perfection'
p607
sI608
S'Estilo'
p608
sI609
S'Regza'
p609
sI610
S'Skatti'
p610
sI611
S'Warm'
p611
sI612
S'Trend'
p612
sI613
S'Tag'
p613
sI614
S'Shade45'
p614
sI615
S'Nimegh'
p615
sI616
S'jeans'
p616
sI617
S'Mchenry'
p617
sI618
S'Ave'
p618
sI619
S'Sml'
p619
sI620
S'LondonDays'
p620
sI621
S'EnF'
p621
sI622
S'reverse'
p622
sI623
S'duenite'
p623
sI624
S'Enzyme'
p624
sI625
S'T'
p625
sI626
S'Figo'
p626
sI627
S'Pvt'
p627
sI628
S'fashion'
p628
sI629
S"SN'C"
p629
sI630
S'Tree'
p630
sI631
S'Threadroots'
p631
sI632
S'Botticelli'
p632
sI633
S'yoke'
p633
sI634
S"34''"
p634
sI635
S'Sliver'
p635
sI636
S'ColorPlus'
p636
sI637
S'Steroids'
p637
sI638
S'Bro'
p638
sI639
S'intricately'
p639
sI640
S'Sunglasses'
p640
sI641
S'Skinny'
p641
sI642
S'Tags'
p642
sI643
S'Zaributi'
p643
sI644
S'Office'
p644
sI645
S'friendly'
p645
sI646
S'Greek'
p646
sI647
S'Solid'
p647
sI648
S'NE'
p648
sI649
S'Comfort'
p649
sI650
S'Rigo'
p650
sI651
S'trousers'
p651
sI652
S'every'
p652
sI653
S'Hold'
p653
sI654
S'Lisova'
p654
sI655
S'wardrobe'
p655
sI656
S'definitely'
p656
sI657
S'Pen'
p657
sI658
S'any'
p658
sI659
S'crowd'
p659
sI660
S'Label'
p660
sI661
S'Rich'
p661
sI662
S'MR'
p662
sI663
S'marked'
p663
sI664
S'Opera'
p664
sI665
S'man'
p665
sI666
S'Valbone'
p666
sI667
S'16'
p667
sI668
S'pair'
p668
sI669
S'Vog'
p669
sI670
S'among'
p670
sI671
S'pick'
p671
sI672
S'distinct'
p672
sI673
S'KAMEEJ'
p673
sI674
S'Classy'
p674
sI675
S'trends'
p675
sI676
S'per'
p676
sI677
S'Maggivox'
p677
sI678
S'Spi'
p678
sI679
S'Darzii'
p679
sI680
S'slim'
p680
sI681
S'Authenzaa'
p681
sI682
S'Match'
p682
sI683
S'Mother'
p683
sI684
S'Kreation'
p684
sI685
S'Snowden'
p685
sI686
S'which'
p686
sI687
S'latest'
p687
sI688
S'Faithful'
p688
sI689
S'Smokestack'
p689
sI690
S'construction'
p690
sI691
S'glance'
p691
sI692
S'Ventures'
p692
sI693
S'catch'
p693
sI694
S'Best'
p694
sI695
S'excellent'
p695
sI696
S'appeal'
p696
sI697
S'Monteil'
p697
sI698
S'Weave'
p698
sI699
S'Flags'
p699
sI700
S'DS'
p700
sI701
S'Nomad'
p701
sI702
S'Add'
p702
sI703
S'styling'
p703
sI704
S'Tailored'
p704
sI705
S'Tailor'
p705
sI706
S'Fox'
p706
sI707
S'formals'
p707
sI708
S'masculine'
p708
sI709
S'Energy'
p709
sI710
S'classy'
p710
sI711
S'keep'
p711
sI712
S'Truenow'
p712
sI713
S'instance'
p713
sI714
S'Villain'
p714
sI715
S'enhances'
p715
sI716
S'Pratami'
p716
sI717
S'add'
p717
sI718
S'vibrant'
p718
sI719
S'Zuricch'
p719
sI720
S'work'
p720
sI721
S'Munero'
p721
sI722
S'kaja'
p722
sI723
S'Crest'
p723
sI724
S'mild'
p724
sI725
S'My'
p725
sI726
S'Spin'
p726
sI727
S'Ehaani'
p727
sI728
S'3Gan'
p728
sI729
S'Collars'
p729
sI730
S'Imported'
p730
sI731
S'weight'
p731
sI732
S'King'
p732
sI733
S'On'
p733
sI734
S'Legesta'
p734
sI735
S'Young'
p735
sI736
S'Jermyn'
p736
sI737
S'blend'
p737
sI738
S'Vanca'
p738
sI739
S'R'
p739
sI740
S'Shopper'
p740
sI741
S'Gives'
p741
sI742
S'Integriti'
p742
sI743
S'Prakasam'
p743
sI744
S'Masculine'
p744
sI745
S'Balkin'
p745
sI746
S'elegance'
p746
sI747
S'TDG'
p747
sI748
S'Cp'
p748
sI749
S'handloom'
p749
sI750
S'artisan'
p750
sI751
S'Street'
p751
sI752
S'allows'
p752
sI753
S'Improved'
p753
sI754
S"30''"
p754
sI755
S'donot'
p755
sI756
S'infuses'
p756
sI757
S'Look'
p757
sI758
S'Owncraft'
p758
sI759
S'Kiez'
p759
sI760
S'Affair'
p760
sI761
S'Jumpusa'
p761
sI762
S'ltd'
p762
sI763
S'breathable'
p763
sI764
S"6'1''"
p764
sI765
S'based'
p765
sI766
S'Attractive'
p766
sI767
S'party'
p767
sI768
S'Sleek'
p768
sI769
S'Patch'
p769
sI770
S'Phutro'
p770
sI771
S'Prefect'
p771
sI772
S'left'
p772
sI773
S'AVE'
p773
sI774
S"32''"
p774
sI775
S'FastColors'
p775
sI776
S'Konnexion'
p776
sI777
S'Allen'
p777
sI778
S'5EM'
p778
sI779
S'Cerruti'
p779
sI780
S'Embroidery'
p780
sI781
S'TAG'
p781
sI782
S'Zarkons'
p782
sI783
S'Jazzup'
p783
sI784
S'O'
p784
sI785
S'Denimlab'
p785
sI786
S'1881'
p786
sI787
S'Vicbono'
p787
sI788
S'Davos'
p788
sI789
S'Fuel'
p789
sI790
S'Wallet'
p790
sI791
S'Thunder'
p791
sI792
S'Desam'
p792
sI793
S'Badlaav'
p793
sI794
S'Idealism'
p794
sI795
S'Extra'
p795
sI796
S'Easies'
p796
sI797
S'Curved'
p797
sI798
S'side'
p798
sI799
S'top'
p799
sI800
S'gift'
p800
sI801
S'ShowStyle'
p801
sI802
S'Koutons'
p802
sI803
S'Outlaw'
p803
sI804
S'Petersburg'
p804
sI805
S'Armazo'
p805
sI806
S'Bulls'
p806
sI807
S'NO'
p807
sI808
S'Dark'
p808
sI809
S'Bendiesel'
p809
sI810
S'EL'
p810
sI811
S'Gungun'
p811
sI812
S'formal'
p812
sI813
S'GDS'
p813
sI814
S'clean'
p814
sI815
S'Garments'
p815
sI816
S'Haflingerr'
p816
sI817
S'Outdoor'
p817
sI818
S'diagonal'
p818
sI819
S'Hueman'
p819
sI820
S'Slub'
p820
sI821
S'blue'
p821
sI822
S'Super'
p822
sI823
S"D'indian"
p823
sI824
S'roller'
p824
sI825
S'Mens'
p825
sI826
S'Leo'
p826
sI827
S'Mafatlal'
p827
sI828
S'99Hunts'
p828
sI829
S'Plus'
p829
sI830
S'Terrain'
p830
sI831
S'FCUK'
p831
sI832
S'Jansons'
p832
sI833
S'Mild'
p833
sI834
S'Skin'
p834
sI835
S'UrbanTouch'
p835
sI836
S'touch'
p836
sI837
S'Twill'
p837
sI838
S'Regalfit'
p838
sI839
S'patterned'
p839
sI840
S'JM'
p840
sI841
S"Finger's"
p841
sI842
S'By'
p842
sI843
S'Divtom'
p843
sI844
S'Wooum'
p844
sI845
S'by'
p845
sI846
S'Sansini'
p846
sI847
S'Merchandise'
p847
sI848
S'Regal'
p848
sI849
S'buttons'
p849
sI850
S'Fukrey'
p850
sI851
S'Magneto'
p851
sI852
S'Wineberry'
p852
sI853
S'OPTION'
p853
sI854
S'poplin'
p854
sI855
S'Girggit'
p855
sI856
S'Caribbean'
p856
sI857
S'Natron'
p857
sI858
S'hand'
p858
sI859
S'Arvind'
p859
sI860
S'SS17'
p860
sI861
S'Joe'
p861
sI862
S'XIV'
p862
sI863
S'MSJ'
p863
sI864
S'Poplin'
p864
sI865
S'Ebry'
p865
sI866
S'front'
p866
sI867
S'Classe'
p867
sI868
S'range'
p868
sI869
S'block'
p869
sI870
S'Koolpals'
p870
sI871
S'use'
p871
sI872
S'K36'
p872
sI873
S'center'
p873
sI874
S'Apparels'
p874
sI875
S'Amb'
p875
sI876
S'Five'
p876
sI877
S'Home'
p877
sI878
S'Indigo'
p878
sI879
S'Lifestyles'
p879
sI880
S'Mesh'
p880
sI881
S'Bone'
p881
sI882
S'Free'
p882
sI883
S'CP'
p883
sI884
S'upscale'
p884
sI885
S'Cobrio'
p885
sI886
S'Trendy'
p886
sI887
S'Lifestyle'
p887
sI888
S'Provides'
p888
sI889
S'inside'
p889
sI890
S'Rafters'
p890
sI891
S'roll'
p891
sI892
S'Truly'
p892
sI893
S'level'
p893
sI894
S'Diagonal'
p894
sI895
S'Akaas'
p895
sI896
S'Purse'
p896
sI897
S'Jadeblue'
p897
sI898
S'Synthetic'
p898
sI899
S'printed'
p899
sI900
S'flannel'
p900
sI901
S'Smile'
p901
sI902
S'texture'
p902
sI903
S'Maniac'
p903
sI904
S'using'
p904
sI905
S'Man'
p905
sI906
S'Silks'
p906
sI907
S'Chikan'
p907
sI908
S'Frd13'
p908
sI909
S'Alex'
p909
sI910
S'Greentree'
p910
sI911
S'more'
p911
sI912
S'Maniere'
p912
sI913
S'Nature'
p913
sI914
S'Taxi'
p914
sI915
S'Solly'
p915
sI916
S'extremely'
p916
sI917
S'removable'
p917
sI918
S'Zyno'
p918
sI919
S'Breathable'
p919
sI920
S'stylish'
p920
sI921
S'Bon'
p921
sI922
S'Kumaran'
p922
sI923
S'Gadzon'
p923
sI924
S'SML'
p924
sI925
S'Trendbend'
p925
sI926
S'Nu'
p926
sI927
S'occassions'
p927
sI928
S'Dapper'
p928
sI929
S'Patterned'
p929
sI930
S'tape'
p930
sI931
S'Placket'
p931
sI932
S'Parson'
p932
sI933
S'percent'
p933
sI934
S'smooth'
p934
sI935
S'Western'
p935
sI936
S'Fabrify'
p936
sI937
S'Pieces'
p937
sI938
S'Star'
p938
sI939
S'Pavone'
p939
sI940
S'warm'
p940
sI941
S'directly'
p941
sI942
S'needed'
p942
sI943
S'B'
p943
sI944
S'Checkered'
p944
sI945
S'Egyptian'
p945
sI946
S'Premium'
p946
sI947
S'do'
p947
sI948
S'Dazzio'
p948
sI949
S'embroidery'
p949
sI950
S'if'
p950
sI951
S'cycle'
p951
sI952
S'Life'
p952
sI953
S'25Th'
p953
sI954
S'Basilio'
p954
sI955
S'Smooth'
p955
sI956
S'Premax'
p956
sI957
S'3XL'
p957
sI958
S'LUCfashion'
p958
sI959
S'checks'
p959
sI960
S'everyday'
p960
sI961
S'Wardtrobe'
p961
sI962
S'Roller'
p962
sI963
S'ND'
p963
sI964
S'Thefitsquare'
p964
sI965
S'Lightweight'
p965
sI966
S'Maxtar'
p966
sI967
S'bleach'
p967
sI968
S'flat'
p968
sI969
S'shade'
p969
sI970
S'embellishment'
p970
sI971
S'Perfectly'
p971
sI972
S'Cool'
p972
sI973
S'El'
p973
sI974
S'give'
p974
sI975
S'Creation'
p975
sI976
S'Appayes'
p976
sI977
S'Fansty'
p977
sI978
S'Fish'
p978
sI979
S'Mumbai'
p979
sI980
S"6'4''"
p980
sI981
S'separately'
p981
sI982
S'Fine'
p982
sI983
S'back'
p983
sI984
S'Frankline'
p984
sI985
S"39''"
p985
sI986
S'Mastered'
p986
sI987
S'Pezzava'
p987
sI988
S'Kapda'
p988
sI989
S'Yepme'
p989
sI990
S'out'
p990
sI991
S'Highlander'
p991
sI992
S'gentle'
p992
sI993
S'Design'
p993
sI994
S'not'
p994
sI995
S'detergent'
p995
sI996
S'BDS'
p996
sI997
S'piece'
p997
sI998
S'pic'
p998
sI999
S'48'
p999
sI1000
S'Appeal'
p1000
sI1001
S'softener'
p1001
sI1002
S'Occasion'
p1002
sI1003
S'WILLIAMS'
p1003
sI1004
S'KHODAY'
p1004
sI1005
S'Metal'
p1005
sI1006
S'Ralp'
p1006
sI1007
S'Compact'
p1007
sI1008
S'Both'
p1008
sI1009
S'Sin'
p1009
sI1010
S'Crazy4White'
p1010
sI1011
S'Tiger'
p1011
sI1012
S'Duke'
p1012
sI1013
S'Catching'
p1013
sI1014
S'Hades'
p1014
sI1015
S'Growl'
p1015
sI1016
S'one'
p1016
sI1017
S'Pure'
p1017
sI1018
S'white'
p1018
sI1019
S'ideal'
p1019
sI1020
S'Lykra'
p1020
sI1021
S"36''"
p1021
sI1022
S'enough'
p1022
sI1023
S'Multicolor'
p1023
sI1024
S'I'
p1024
sI1025
S'Check'
p1025
sI1026
S'Away'
p1026
sI1027
S'apparel'
p1027
sI1028
S'Stylox'
p1028
sI1029
S'DLS'
p1029
sI1030
S'RED'
p1030
sI1031
S'Binnote'
p1031
sI1032
S'Nine'
p1032
sI1033
S'differ'
p1033
sI1034
S'Roar'
p1034
sI1035
S'also'
p1035
sI1036
S'Xiv'
p1036
sI1037
S'Has'
p1037
sI1038
S'fine'
p1038
sI1039
S'Kleren'
p1039
sI1040
S'Makes'
p1040
sI1041
S'McHenry'
p1041
sI1042
S'pack'
p1042
sI1043
S'FXJeans'
p1043
sI1044
S'Tie'
p1044
sI1045
S'Msj'
p1045
sI1046
S'image'
p1046
sI1047
S'An'
p1047
sI1048
S'presenting'
p1048
sI1049
S'Grid'
p1049
sI1050
S'Jayhari'
p1050
sI1051
S'linen'
p1051
sI1052
S'Fairly'
p1052
sI1053
S'mode'
p1053
sI1054
S'red'
p1054
sI1055
S'Piping'
p1055
sI1056
S'Uniquecollection'
p1056
sI1057
S'Good'
p1057
sI1058
S'Hem'
p1058
sI1059
S'Number'
p1059
sI1060
S'lightweight'
p1060
sI1061
S'ShopperTree'
p1061
sI1062
S'Taboo'
p1062
sI1063
S'LRC'
p1063
sI1064
S'Fabb'
p1064
sI1065
S'ridge'
p1065
sI1066
S'46'
p1066
sI1067
S'slimmer'
p1067
sI1068
S'outfits'
p1068
sI1069
S'Kaja'
p1069
sI1070
S'Lapaya'
p1070
sI1071
S'ShowOff'
p1071
sI1072
S'Available'
p1072
sI1073
S'been'
p1073
sI1074
S'Rajputana'
p1074
sI1075
S'sure'
p1075
sI1076
S'months'
p1076
sI1077
S'Hand'
p1077
sI1078
S'Golden'
p1078
sI1079
S'Voc'
p1079
sI1080
S'Dyed'
p1080
sI1081
S'Ltd'
p1081
sI1082
S'adjustable'
p1082
sI1083
S'Abc'
p1083
sI1084
S'Featu'
p1084
sI1085
S'urbantouch'
p1085
sI1086
S'printing'
p1086
sI1087
S'half'
p1087
sI1088
S'Maharaja'
p1088
sI1089
S'Cornee'
p1089
sI1090
S'Quicktion'
p1090
sI1091
S'Hundred'
p1091
sI1092
S'Pair'
p1092
sI1093
S'Size'
p1093
sI1094
S'XXL'
p1094
sI1095
S'Reverse'
p1095
sI1096
S'Distinctive'
p1096
sI1097
S'Holga'
p1097
sI1098
S'artisans'
p1098
sI1099
S'Bluey'
p1099
sI1100
S'subjected'
p1100
sI1101
S'Prapti'
p1101
sI1102
S'Arzaan'
p1102
sI1103
S'baaamboos'
p1103
sI1104
S'Fxjeans'
p1104
sI1105
S'Lingo'
p1105
sI1106
S'SS'
p1106
sI1107
S'SR'
p1107
sI1108
S'Showstyle'
p1108
sI1109
S'well'
p1109
sI1110
S'Price'
p1110
sI1111
S'Cloud'
p1111
sI1112
S'enzyme'
p1112
sI1113
S'various'
p1113
sI1114
S'Kriss'
p1114
sI1115
S'Zaraman'
p1115
sI1116
S'Routeen'
p1116
sI1117
S'Dennis'
p1117
sI1118
S'cuffs'
p1118
sI1119
S'chest'
p1119
sI1120
S'Front'
p1120
sI1121
S'crisp'
p1121
sI1122
S'involved'
p1122
sI1123
S'thin'
p1123
sI1124
S'GREEN'
p1124
sI1125
S'BLUE'
p1125
sI1126
S'Other'
p1126
sI1127
S'solly'
p1127
sI1128
S'Yarn'
p1128
sI1129
S'processes'
p1129
sI1130
S'Pp'
p1130
sI1131
S'crafted'
p1131
sI1132
S'Multicolour'
p1132
sI1133
S"Creation's"
p1133
sI1134
S'Wearing'
p1134
sI1135
S'warmer'
p1135
sI1136
S'Up'
p1136
sI1137
S'VarianceVesture'
p1137
sI1138
S'Zombom'
p1138
sI1139
S'Le'
p1139
sI1140
S'Bds'
p1140
sI1141
S'green'
p1141
sI1142
S'Inner'
p1142
sI1143
S'Mogo'
p1143
sI1144
S'silver'
p1144
sI1145
S"Go'hive"
p1145
sI1146
S'western'
p1146
sI1147
S'Band'
p1147
sI1148
S'though'
p1148
sI1149
S'Scented'
p1149
sI1150
S'Strips'
p1150
sI1151
S'Octave'
p1151
sI1152
S'Grahakji'
p1152
sI1153
S'neckband'
p1153
sI1154
S'Azyfabrics'
p1154
sI1155
S'Handloom'
p1155
sI1156
S'Mabyn'
p1156
sI1157
S'FuEl'
p1157
sI1158
S'Gray'
p1158
sI1159
S'Lavender'
p1159
sI1160
S'Pipin'
p1160
sI1161
S'County'
p1161
sI1162
S'Cream'
p1162
sI1163
S'no'
p1163
sI1164
S'Surit'
p1164
sI1165
S'Nova'
p1165
sI1166
S'Indi'
p1166
sI1167
S'Out'
p1167
sI1168
S'myCaliber'
p1168
sI1169
S'Swed'
p1169
sI1170
S'TheFitSquare'
p1170
sI1171
S'Sleeve'
p1171
sI1172
S'Granix'
p1172
sI1173
S'JFS'
p1173
sI1174
S'BRO'
p1174
sI1175
S'comes'
p1175
sI1176
S'weave'
p1176
sI1177
S'images'
p1177
sI1178
S'oh'
p1178
sI1179
S'hem'
p1179
sI1180
S'SEVEN'
p1180
sI1181
S'Original'
p1181
sI1182
S'represent'
p1182
sI1183
S'lining'
p1183
sI1184
S'Vita'
p1184
sI1185
S'K'
p1185
sI1186
S'Cloth'
p1186
sI1187
S'Block'
p1187
sI1188
S'Uomo'
p1188
sI1189
S'Bag'
p1189
sI1190
S'Ricco'
p1190
sI1191
S'Poly'
p1191
sI1192
S'piping'
p1192
sI1193
S'Class'
p1193
sI1194
S'Modal'
p1194
sI1195
S'Zeal'
p1195
sI1196
S'SPK9153TF'
p1196
sI1197
S'Dharanee'
p1197
sI1198
S'Fabuniforms'
p1198
sI1199
S'AE'
p1199
sI1200
S'AW'
p1200
sI1201
S'Luxe'
p1201
sI1202
S'4XL'
p1202
sI1203
S'Step'
p1203
sI1204
S'Rooster'
p1204
sI1205
S'YPMSHRT0140'
p1205
sI1206
S'SMT'
p1206
sI1207
S'Drap'
p1207
sI1208
S'Zaprock'
p1208
sI1209
S'Creations'
p1209
sI1210
S'Ssb'
p1210
sI1211
S'Loves'
p1211
sI1212
S'ABC'
p1212
sI1213
S'Softner'
p1213
sI1214
S'BLACK'
p1214
sI1215
S'50'
p1215
sI1216
S'Wrangler'
p1216
sI1217
S'Oxford'
p1217
sI1218
S'Cuff'
p1218
sI1219
S'Collections'
p1219
sI1220
S'110'
p1220
sI1221
S'proper'
p1221
sI1222
S'actual'
p1222
sI1223
S'Weight'
p1223
sI1224
S'HotTribes'
p1224
sI1225
S'yellow'
p1225
sI1226
S'solid'
p1226
sI1227
S'Go'
p1227
sI1228
S'Avastra'
p1228
sI1229
S'Carbon'
p1229
sI1230
S'SPK1050HZ'
p1230
sI1231
S'Benoton'
p1231
sI1232
S'Wild'
p1232
sI1233
S'Pritns'
p1233
sI1234
S'london'
p1234
sI1235
S'Venga'
p1235
sI1236
S'washed'
p1236
sI1237
S'SSB'
p1237
sI1238
S'fitting'
p1238
sI1239
S'm'
p1239
sI1240
S'Native'
p1240
sI1241
S'colors'
p1241
sI1242
S'Stripe'
p1242
sI1243
S'relish'
p1243
sI1244
S'com'
p1244
sI1245
S'Hypernation'
p1245
sI1246
S'MODE'
p1246
sI1247
S'portal'
p1247
sI1248
S'Trendz'
p1248
sI1249
S'ANYTIME'
p1249
sI1250
S'Overseas'
p1250
sI1251
S'shoulder'
p1251
sI1252
S'Broad'
p1252
sI1253
S'Inspiration'
p1253
sI1254
S'o'
p1254
sI1255
S'Hang'
p1255
sI1256
S'Woven'
p1256
sI1257
S'Mahroon'
p1257
sI1258
S'Hunk'
p1258
sI1259
S'Tricolor'
p1259
sI1260
S'together'
p1260
sI1261
S'Diwas'
p1261
sI1262
S'Sky'
p1262
sI1263
S'Height'
p1263
sI1264
S'Herringbone'
p1264
sI1265
S'Age'
p1265
sI1266
S'black'
p1266
sI1267
S'Henley'
p1267
sI1268
S'Retail'
p1268
sI1269
S'pink'
p1269
sI1270
S'Rg'
p1270
sI1271
S'EVOQ'
p1271
sI1272
S'LEAF'
p1272
sI1273
S'Touch'
p1273
sI1274
S'Trendzz'
p1274
sI1275
S'Cherry'
p1275
sI1276
S'Nucode'
p1276
sI1277
S'arvind'
p1277
sI1278
S'Similar'
p1278
sI1279
S'Lilac'
p1279
sI1280
S'Finish'
p1280
sI1281
S'stretch'
p1281
sI1282
S'Together'
p1282
sI1283
S'Round'
p1283
sI1284
S'OER'
p1284
sI1285
S'YPMSHRT0188'
p1285
sI1286
S'Is'
p1286
sI1287
S'summer'
p1287
sI1288
S'3gan'
p1288
sI1289
S'Fastcolors'
p1289
sI1290
S'Micro'
p1290
sI1291
S'CHIKAN'
p1291
sI1292
S'Dress'
p1292
sI1293
S'Wooden'
p1293
sI1294
S'Inspire'
p1294
sI1295
S'Lucfashion'
p1295
sI1296
S'Enf'
p1296
sI1297
S'JumpUSA'
p1297
sI1298
S'egyptian'
p1298
sI1299
S'full'
p1299
sI1300
S'Fluteman'
p1300
sI1301
S'Adhaans'
p1301
sI1302
S'fo'
p1302
sI1303
S'Logan'
p1303
sI1304
S'Trinity'
p1304
sI1305
S'oxford'
p1305
sI1306
S'Horsler'
p1306
sI1307
S'lie'
p1307
sI1308
S'without'
p1308
sI1309
S'Grain'
p1309
sI1310
S'Hill'
p1310
sI1311
S'Hemline'
p1311
sI1312
S'French'
p1312
sI1313
S'silk'
p1313
sI1314
S'double'
p1314
sI1315
S'Fog'
p1315
sI1316
S'Play'
p1316
sI1317
S'Floral'
p1317
sI1318
S"Go'Hive"
p1318
sI1319
S'WHITE'
p1319
sI1320
S'Buttons'
p1320
sI1321
S'Ehanni'
p1321
sI1322
S'showing'
p1322
sI1323
S'Personalityplus'
p1323
sI1324
S'Lemon'
p1324
sI1325
S'Gassed'
p1325
sI1326
S'Kriti'
p1326
sI1327
S'similar'
p1327
sI1328
S'Mangal'
p1328
sI1329
S'SHIRT'
p1329
sI1330
S'Party'
p1330
sI1331
S'fabrics'
p1331
sI1332
S'Caris'
p1332
sI1333
S'Mobilio'
p1333
sI1334
S'Hawk'
p1334
sI1335
S'Tarkshyam'
p1335
sI1336
S'Pop'
p1336
sI1337
S'Vedika'
p1337
sI1338
S'SPK9135TF'
p1338
sI1339
S'joint'
p1339
sI1340
S'Ddi'
p1340
sI1341
S'Flora'
p1341
sI1342
S'present'
p1342
sI1343
S'multi'
p1343
sI1344
S"Jain's"
p1344
sI1345
S'Colours'
p1345
sI1346
S'Company'
p1346
sI1347
S'five'
p1347
sI1348
S'Striped'
p1348
sI1349
S'Dee'
p1349
sI1350
S'SPK1152FZ'
p1350
sI1351
S'detail'
p1351
sI1352
S'SPK1068FZ'
p1352
sI1353
S'DSCC0980'
p1353
sI1354
S'Redox'
p1354
sI1355
S'Ranger'
p1355
sI1356
S'DZSH2742'
p1356
sI1357
S'buttonhole'
p1357
sI1358
S'DZSH2342'
p1358
sI1359
S'BP21FS'
p1359
sI1360
S'clothes'
p1360
sI1361
S'Hamilton'
p1361
sI1362
S'above'
p1362
sI1363
S'YPMSHRT0301'
p1363
sI1364
S'DSCC0764'
p1364
sI1365
S'DSCC0766'
p1365
sI1366
S'101'
p1366
sI1367
S'DSCC0768'
p1367
sI1368
S'980310'
p1368
sI1369
S'DZSH3344'
p1369
sI1370
S'favio'
p1370
sI1371
S'WHT'
p1371
sI1372
S'Khaal'
p1372
sI1373
S'LAVENDER'
p1373
sI1374
S'hole'
p1374
sI1375
S'5XL'
p1375
sI1376
S'DZSH144'
p1376
sI1377
S'hot'
p1377
sI1378
S'Stent'
p1378
sI1379
S'Hip'
p1379
sI1380
S'CC1000'
p1380
sI1381
S'CHN'
p1381
sI1382
S'Steps'
p1382
sI1383
S'RG12FS'
p1383
sI1384
S'CREAM'
p1384
sI1385
S'DARKSCARLET'
p1385
sI1386
S'COMBO89'
p1386
sI1387
S'FXJEANS'
p1387
sI1388
S'free'
p1388
sI1389
S'CC0996'
p1389
sI1390
S'CC0997'
p1390
sI1391
S'DSFS0956'
p1391
sI1392
S'CC0995'
p1392
sI1393
S'CC0993'
p1393
sI1394
S'DSFS0952'
p1394
sI1395
S'CC0998'
p1395
sI1396
S'CC0999'
p1396
sI1397
S'National'
p1397
sI1398
S'Mycaliber'
p1398
sI1399
S'Human'
p1399
sI1400
S'DZSH3244'
p1400
sI1401
S'sober'
p1401
sI1402
S'BH13FC'
p1402
sI1403
S'COMBO65'
p1403
sI1404
S'LTPURPLE'
p1404
sI1405
S'SPK1156FZ'
p1405
sI1406
S'CS02141071'
p1406
sI1407
S'CS02141077'
p1407
sI1408
S'CS02141074'
p1408
sI1409
S'feeling'
p1409
sI1410
S'mini'
p1410
sI1411
S'bsr'
p1411
sI1412
S'regular'
p1412
sI1413
S'DZSH342'
p1413
sI1414
S'Bid'
p1414
sI1415
S'Buttoned'
p1415
sI1416
S'3049'
p1416
sI1417
S'patch'
p1417
sI1418
S'Invern'
p1418
sI1419
S'theFitSquare'
p1419
sI1420
S'02'
p1420
sI1421
S'03'
p1421
sI1422
S'BG11HS'
p1422
sI1423
S'01'
p1423
sI1424
S'Crocks'
p1424
sI1425
S'Bleach'
p1425
sI1426
S'366'
p1426
sI1427
S'COMBO99'
p1427
sI1428
S'COMBO93'
p1428
sI1429
S'REBANTA'
p1429
sI1430
S'CC0984'
p1430
sI1431
S'CC0987'
p1431
sI1432
S'CC0986'
p1432
sI1433
S'CC0989'
p1433
sI1434
S'CC0988'
p1434
sI1435
S'Syda'
p1435
sI1436
S'Trendiez'
p1436
sI1437
S'SPK1057HZ'
p1437
sI1438
S'CB'
p1438
sI1439
S'Preceeous'
p1439
sI1440
S'Cm'
p1440
sI1441
S'trendzz'
p1441
sI1442
S'COMBO72'
p1442
sI1443
S'COMBO73'
p1443
sI1444
S'Follow'
p1444
sI1445
S'seven'
p1445
sI1446
S'ZariButi'
p1446
sI1447
S'Pelican'
p1447
sI1448
S'DSFS0798'
p1448
sI1449
S'DSFS0799'
p1449
sI1450
S'SPK1114FA'
p1450
sI1451
S'DZSH2644'
p1451
sI1452
S'Mind'
p1452
sI1453
S'yes'
p1453
sI1454
S'Offer'
p1454
sI1455
S'Gap'
p1455
sI1456
S'SPK1009FZ'
p1456
sI1457
S'turquoise'
p1457
sI1458
S'QUEBEC'
p1458
sI1459
S'right'
p1459
sI1460
S'standing'
p1460
sI1461
S'Let'
p1461
sI1462
S'DSFS0802'
p1462
sI1463
S'DSFS0800'
p1463
sI1464
S'DSFS0801'
p1464
sI1465
S'COMBO104'
p1465
sI1466
S'Make'
p1466
sI1467
S'Chines'
p1467
sI1468
S'Pattern'
p1468
sI1469
S'Hanu'
p1469
sI1470
S'DSFS0973'
p1470
sI1471
S'Aqua'
p1471
sI1472
S'garments'
p1472
sI1473
S'Publishing'
p1473
sI1474
S'FAB'
p1474
sI1475
S'leeve'
p1475
sI1476
S'TWO'
p1476
sI1477
S'dotted'
p1477
sI1478
S'DZSH2244'
p1478
sI1479
S'SRM10033AROON'
p1479
sI1480
S'chain'
p1480
sI1481
S'DZSH3440'
p1481
sI1482
S'Bold'
p1482
sI1483
S'cool'
p1483
sI1484
S'FIt'
p1484
sI1485
S'DZSH1938'
p1485
sI1486
S'Tan'
p1486
sI1487
S'DSCC981'
p1487
sI1488
S'DSCC982'
p1488
sI1489
S'prevent'
p1489
sI1490
S'DSFS0803'
p1490
sI1491
S'khaki'
p1491
sI1492
S'Rider'
p1492
sI1493
S'Charcoal'
p1493
sI1494
S'3026'
p1494
sI1495
S'3021'
p1495
sI1496
S'QUALITY'
p1496
sI1497
S'along'
p1497
sI1498
S'IKLFWAW11SH118'
p1498
sI1499
S'Solemio'
p1499
sI1500
S'COMB0157'
p1500
sI1501
S'Those'
p1501
sI1502
S"Korry's"
p1502
sI1503
S'Inward'
p1503
sI1504
S'DSFS0960'
p1504
sI1505
S'Who'
p1505
sI1506
S'Model'
p1506
sI1507
S'Elastane'
p1507
sI1508
S'Blended'
p1508
sI1509
S'SPK1064FZ'
p1509
sI1510
S'wearability'
p1510
sI1511
S'SPK1176FZ'
p1511
sI1512
S'Kingsburry'
p1512
sI1513
S'Harrington'
p1513
sI1514
S'divtom'
p1514
sI1515
S'Generic'
p1515
sI1516
S'lycra'
p1516
sI1517
S'Live'
p1517
sI1518
S'stitch'
p1518
sI1519
S'LTPINK'
p1519
sI1520
S'monster'
p1520
sI1521
S'DZSH1742'
p1521
sI1522
S'Stand'
p1522
sI1523
S'DSCC978'
p1523
sI1524
S'DSCC979'
p1524
sI1525
S'Loire'
p1525
sI1526
S'JEANS'
p1526
sI1527
S'gives'
p1527
sI1528
S'Neck'
p1528
sI1529
S'DSFPO758'
p1529
sI1530
S'15'
p1530
sI1531
S'DT'
p1531
sI1532
S'Do'
p1532
sI1533
S'Basics'
p1533
sI1534
S'COMBO166'
p1534
sI1535
S'PC'
p1535
sI1536
S'SOLEMIO'
p1536
sI1537
S'COMBO26'
p1537
sI1538
S'GADZON'
p1538
sI1539
S'get'
p1539
sI1540
S'Leaves'
p1540
sI1541
S'DSC711B17'
p1541
sI1542
S'LUCFashion'
p1542
sI1543
S'Natural'
p1543
sI1544
S"6'"
p1544
sI1545
S'Frenchcrown'
p1545
sI1546
S'poly'
p1546
sI1547
S'Buy'
p1547
sI1548
S'MB10'
p1548
sI1549
S'MB11'
p1549
sI1550
S'buttton'
p1550
sI1551
S'SMSH053'
p1551
sI1552
S'Cross'
p1552
sI1553
S'jute'
p1553
sI1554
S'SPK1112FA'
p1554
sI1555
S'ID'
p1555
sI1556
S'LIHAAZ'
p1556
sI1557
S'Polos'
p1557
sI1558
S'SPK1075HZ'
p1558
sI1559
S'PHUTRO'
p1559
sI1560
S'Contemporary'
p1560
sI1561
S'DZSH538'
p1561
sI1562
S'CP0991'
p1562
sI1563
S'Jute'
p1563
sI1564
S'utterly'
p1564
sI1565
S'Na'
p1565
sI1566
S'DZSH644'
p1566
sI1567
S'LIGHTPINK'
p1567
sI1568
S'Celio'
p1568
sI1569
S'Combination'
p1569
sI1570
S'NU'
p1570
sI1571
S'SPK9051TF'
p1571
sI1572
S'Gupta'
p1572
sI1573
S'DZSH1342'
p1573
sI1574
S'COFFEE'
p1574
sI1575
S'601'
p1575
sI1576
S'Hop'
p1576
sI1577
S'FPC'
p1577
sI1578
S'Mallika'
p1578
sI1579
S'GARGI'
p1579
sI1580
S'dyed'
p1580
sI1581
S'CERULEAN'
p1581
sI1582
S'SAGE'
p1582
sI1583
S'FASHIONS'
p1583
sI1584
S'Jhon'
p1584
sI1585
S'Copper'
p1585
sI1586
S'SPK1157FZ'
p1586
sI1587
S'Jdot'
p1587
sI1588
S'SPK9140TF'
p1588
sI1589
S'Combo180'
p1589
sI1590
S'PACK'
p1590
sI1591
S'COMBO159'
p1591
sI1592
S'abc'
p1592
sI1593
S'menswear'
p1593
sI1594
S'DZSH2844'
p1594
sI1595
S'Willmohr'
p1595
sI1596
S'Ruse'
p1596
sI1597
S'Suede'
p1597
sI1598
S'BLK'
p1598
sI1599
S'NOTCH'
p1599
sI1600
S'CC0994'
p1600
sI1601
S'CC0990'
p1601
sI1602
S'DSCCF1003'
p1602
sI1603
S'stable'
p1603
sI1604
S'IKMDWSR13SH609'
p1604
sI1605
S'SPK9156TF'
p1605
sI1606
S'Importantia'
p1606
sI1607
S'beautiful'
p1607
sI1608
S'buckket'
p1608
sI1609
S'COMBO'
p1609
sI1610
S'Pret'
p1610
sI1611
S'Shadow'
p1611
sI1612
S'Wrinkle'
p1612
sI1613
S'Lather'
p1613
sI1614
S'Johan'
p1614
sI1615
S'Deep'
p1615
sI1616
S'DSFPO760'
p1616
sI1617
S'Illusion'
p1617
sI1618
S'25'
p1618
sI1619
S'COLLECTION'
p1619
sI1620
S"6'1"
p1620
sI1621
S'Mall4all'
p1621
sI1622
S'print'
p1622
sI1623
S'Uni'
p1623
sI1624
S'DZSH2438'
p1624
sI1625
S'feel'
p1625
sI1626
S'Hanky'
p1626
sI1627
S'DZSH2544'
p1627
sI1628
S'CS02141084'
p1628
sI1629
S'CS02141085'
p1629
sI1630
S'DZSH2940'
p1630
sI1631
S'Faded'
p1631
sI1632
S'Mauve'
p1632
sI1633
S'Nim'
p1633
sI1634
S'Brings'
p1634
sI1635
S'Finished'
p1635
sI1636
S'IKMDWSR13SH504'
p1636
sI1637
S'75'
p1637
sI1638
S'SPK1018FZ'
p1638
sI1639
S'Swisscott'
p1639
sI1640
S'taxi'
p1640
sI1641
S'DZSH1638'
p1641
sI1642
S"Pelican's"
p1642
sI1643
S'DZSH4042'
p1643
sI1644
S'collor'
p1644
sI1645
S'COMBO133'
p1645
sI1646
S'8'
p1646
sI1647
S'DS3CF02'
p1647
sI1648
S'DZSH1038'
p1648
sI1649
S'Features'
p1649
sI1650
S'BO12FS'
p1650
sI1651
S'set'
p1651
sI1652
S'SOUL'
p1652
sI1653
S'Sea'
p1653
sI1654
S'both'
p1654
sI1655
S'SPK9167TF'
p1655
sI1656
S'Breton'
p1656
sI1657
S'Combo154'
p1657
sI1658
S'COMBO170'
p1658
sI1659
S'COMBO171'
p1659
sI1660
S'DZSH2138'
p1660
sI1661
S'DBRW'
p1661
sI1662
S'5em'
p1662
sI1663
S'Basket'
p1663
sI1664
S'Pice'
p1664
sI1665
S'COMBO184'
p1665
sI1666
S'utmost'
p1666
sI1667
S'Winston'
p1667
sI1668
S'COMBO181'
p1668
sI1669
S'binding'
p1669
sI1670
S"GO'Hive"
p1670
sI1671
S'rib'
p1671
sI1672
S'ROCX'
p1672
sI1673
S'RIWAS'
p1673
sI1674
S'Bonaty'
p1674
sI1675
S'9'
p1675
sI1676
S'DSC875B13'
p1676
sI1677
S'Tees'
p1677
sI1678
S'Camel'
p1678
sI1679
S'Urbantaga'
p1679
sI1680
S'Statement'
p1680
sI1681
S'Lrc'
p1681
sI1682
S'cum'
p1682
sI1683
S'Last'
p1683
sI1684
S'Getabhi'
p1684
sI1685
S'Or'
p1685
sI1686
S'OH'
p1686
sI1687
S'OF'
p1687
sI1688
S'Finivo'
p1688
sI1689
S'Economy'
p1689
sI1690
S'Odin'
p1690
sI1691
S'Aaral'
p1691
sI1692
S'Ottoman'
p1692
sI1693
S'stitched'
p1693
sI1694
S'DSFP0754'
p1694
sI1695
S'DSFP0756'
p1695
sI1696
S'COMBO161'
p1696
sI1697
S'cloth'
p1697
sI1698
S'COMBO162'
p1698
sI1699
S'COMBO165'
p1699
sI1700
S'COMBO169'
p1700
sI1701
S'DZSH3942'
p1701
sI1702
S'Bueno'
p1702
sI1703
S'Elegant'
p1703
sI1704
S'EBRY'
p1704
sI1705
S'Snap'
p1705
sI1706
S'lemon'
p1706
sI1707
S'nice'
p1707
sI1708
S'980309'
p1708
sI1709
S'DZSH3542'
p1709
sI1710
S'Shoppertree'
p1710
sI1711
S'Not'
p1711
sI1712
S'Azy'
p1712
sI1713
S'Carmino'
p1713
sI1714
S'knife'
p1714
sI1715
S'DZSH1542'
p1715
sI1716
S'Dobbly'
p1716
sI1717
S'3d'
p1717
sI1718
S'12076638'
p1718
sI1719
S'SPK1013FA'
p1719
sI1720
S'30'
p1720
sI1721
S'Range'
p1721
sI1722
S'34'
p1722
sI1723
S'makes'
p1723
sI1724
S'mens'
p1724
sI1725
S'Ultra'
p1725
sI1726
S'TOP'
p1726
sI1727
S'Collor'
p1727
sI1728
S'tab'
p1728
sI1729
S'Junkies'
p1729
sI1730
S'DZSH3138'
p1730
sI1731
S'collection'
p1731
sI1732
S'Pockets'
p1732
sI1733
S'DSCCF0804'
p1733
sI1734
S'DSCCF0795'
p1734
sI1735
S'2010'
p1735
sI1736
S"Sn'C"
p1736
sI1737
S'kapda'
p1737
sI1738
S'DSP55N7'
p1738
sI1739
S'ROSE'
p1739
sI1740
S'DZSH1444'
p1740
sI1741
S'DZSH1842'
p1741
sI1742
S'OLIVE'
p1742
sI1743
S'SPK9164TF'
p1743
sI1744
S'yarn'
p1744
sI1745
S'finest'
p1745
sI1746
S'SPK9165TF'
p1746
sI1747
S'detailing'
p1747
sI1748
S'cutaway'
p1748
sI1749
S'Anti'
p1749
sI1750
S'Ck2550'
p1750
sI1751
S'Diego'
p1751
sI1752
S'PURPLE'
p1752
sI1753
S'FIFTY'
p1753
sI1754
S'Vinay'
p1754
sI1755
S'COMBO105'
p1755
sI1756
S'class'
p1756
sI1757
S'USPA'
p1757
sI1758
S'LS11FS'
p1758
sI1759
S'DZSH440'
p1759
sI1760
S'stripes'
p1760
sI1761
S'Viniyog'
p1761
sI1762
S'stitching'
p1762
sI1763
S'Paunch'
p1763
sI1764
S'DZSH842'
p1764
sI1765
S'DZSH3038'
p1765
sI1766
S'DZSH3742'
p1766
sI1767
S'Pc'
p1767
sI1768
S'Stylised'
p1768
sI1769
S'DZSH3638'
p1769
sI1770
S'Get'
p1770
sI1771
S'c9'
p1771
sI1772
S'c6'
p1772
sI1773
S'ZIDO'
p1773
sI1774
S'Chinos'
p1774
sI1775
S'JCS'
p1775
sI1776
S'Bruchell'
p1776
sI1777
S'MB9'
p1777
sI1778
S'BH12FS'
p1778
sI1779
S'MB7'
p1779
sI1780
S'MB2'
p1780
sI1781
S'MB3'
p1781
sI1782
S'triplnn'
p1782
sI1783
S'COMBO138'
p1783
sI1784
S'COMBO136'
p1784
sI1785
S'COMBO134'
p1785
sI1786
S'Porter'
p1786
sI1787
S'Fabrics'
p1787
sI1788
S'Scarlet'
p1788
sI1789
S'CC0983'
p1789
sI1790
S'COMBO177'
p1790
sI1791
S'Chronax'
p1791
sI1792
S'beige'
p1792
sI1793
S'DZSH944'
p1793
sI1794
S'GRAY'
p1794
sI1795
S'S1701073'
p1795
sI1796
S'RNTW06'
p1796
sI1797
S'Chill'
p1797
sI1798
S'function'
p1798
sI1799
S'buy'
p1799
sI1800
S'WEAR'
p1800
sI1801
S'Cargo'
p1801
sI1802
S'pin'
p1802
sI1803
S'Fancy'
p1803
sI1804
S'DZSH1240'
p1804
sI1805
S'Hosiery'
p1805
sI1806
S'Know'
p1806
sI1807
S'rich'
p1807
sI1808
S'Fasionable'
p1808
s.